; Function Attrs: mustprogress uwtable
define void @_ZN2cv6detail7GArrayUC2ERKNS_5GNodeEm(ptr noundef nonnull writeonly align 8 captures(none) dereferenceable(32) %0, ptr noundef nonnull align 8 dereferenceable(16) %1, i64 noundef %2) unnamed_addr #3 align 2 personality ptr @__gxx_personality_v0 {
  %4 = alloca %"class.cv::util::variant.6", align 8
  %5 = tail call noalias noundef nonnull dereferenceable(184) ptr @_Znwm(i64 noundef 184) #17
  store i64 0, ptr %4, align 8, !tbaa !3
  invoke void @_ZN2cv7GOriginC1ENS_6GShapeERKNS_5GNodeEmNS_4util7variantIJNS5_9monostateESt8functionIFvRNS_6detail9VectorRefEEES8_IFvRNS9_9OpaqueRefEEEEEENS9_10OpaqueKindE(ptr noundef nonnull align 8 dereferenceable(180) %5, i32 noundef 2, ptr noundef nonnull align 8 dereferenceable(16) %1, i64 noundef %2, ptr noundef nonnull %4, i32 noundef 0)
          to label %6 unwind label %31

6:                                                ; preds = %3
  store ptr %5, ptr %0, align 8, !tbaa !8
  %7 = getelementptr inbounds nuw i8, ptr %0, i64 8
  store ptr null, ptr %7, align 8, !tbaa !14
  %8 = invoke noalias noundef nonnull dereferenceable(24) ptr @_Znwm(i64 noundef 24) #17
          to label %19 unwind label %9

9:                                                ; preds = %6
  %10 = landingpad { ptr, i32 }
          catch ptr null
  %11 = extractvalue { ptr, i32 } %10, 0
  %12 = call ptr @__cxa_begin_catch(ptr %11) #18
  call void @_ZN2cv7GOriginD2Ev(ptr noundef nonnull align 8 dereferenceable(180) %5) #18
  call void @_ZdlPv(ptr noundef nonnull %5) #19
  invoke void @__cxa_rethrow() #20
          to label %18 unwind label %13

13:                                               ; preds = %9
  %14 = landingpad { ptr, i32 }
          cleanup
  invoke void @__cxa_end_catch()
          to label %.body unwind label %15

15:                                               ; preds = %13
  %16 = landingpad { ptr, i32 }
          catch ptr null
  %17 = extractvalue { ptr, i32 } %16, 0
  call void @__clang_call_terminate(ptr %17) #21
  unreachable

18:                                               ; preds = %9
  unreachable

19:                                               ; preds = %6
  %20 = getelementptr inbounds nuw i8, ptr %8, i64 8
  store i32 1, ptr %20, align 8, !tbaa !15
  %21 = getelementptr inbounds nuw i8, ptr %8, i64 12
  store i32 1, ptr %21, align 4, !tbaa !18
  store ptr getelementptr inbounds nuw inrange(-16, 40) (i8, ptr @_ZTVSt15_Sp_counted_ptrIPN2cv7GOriginELN9__gnu_cxx12_Lock_policyE2EE, i64 16), ptr %8, align 8, !tbaa !19
  %22 = getelementptr inbounds nuw i8, ptr %8, i64 16
  store ptr %5, ptr %22, align 8, !tbaa !21
  store ptr %8, ptr %7, align 8, !tbaa !14
  %23 = load i64, ptr %4, align 8, !tbaa !3
  %24 = getelementptr inbounds nuw [3 x ptr], ptr @constinit, i64 0, i64 %23
  %25 = load ptr, ptr %24, align 8, !tbaa !23
  %26 = getelementptr inbounds nuw i8, ptr %4, i64 8
  invoke void %25(ptr noundef nonnull %26)
          to label %_ZN2cv4util7variantIJNS0_9monostateESt8functionIFvRNS_6detail9VectorRefEEES3_IFvRNS4_9OpaqueRefEEEEED2Ev.exit unwind label %27

27:                                               ; preds = %19
  %28 = landingpad { ptr, i32 }
          catch ptr null
  %29 = extractvalue { ptr, i32 } %28, 0
  call void @__clang_call_terminate(ptr %29) #21
  unreachable

_ZN2cv4util7variantIJNS0_9monostateESt8functionIFvRNS_6detail9VectorRefEEES3_IFvRNS4_9OpaqueRefEEEEED2Ev.exit: ; preds = %19
  %30 = getelementptr inbounds nuw i8, ptr %0, i64 16
  call void @llvm.memset.p0.i64(ptr noundef nonnull align 8 dereferenceable(16) %30, i8 0, i64 16, i1 false)
  ret void

31:                                               ; preds = %3
  %32 = landingpad { ptr, i32 }
          cleanup
  br label %.body

.body:                                            ; preds = %13, %31
  %.0.lpad-body = phi i1 [ true, %31 ], [ false, %13 ]
  %eh.lpad-body = phi { ptr, i32 } [ %32, %31 ], [ %14, %13 ]
  %33 = load i64, ptr %4, align 8, !tbaa !3
  %34 = getelementptr inbounds nuw [3 x ptr], ptr @constinit, i64 0, i64 %33
  %35 = load ptr, ptr %34, align 8, !tbaa !23
  %36 = getelementptr inbounds nuw i8, ptr %4, i64 8
  invoke void %35(ptr noundef nonnull %36)
          to label %_ZN2cv4util7variantIJNS0_9monostateESt8functionIFvRNS_6detail9VectorRefEEES3_IFvRNS4_9OpaqueRefEEEEED2Ev.exit5 unwind label %37

37:                                               ; preds = %.body
  %38 = landingpad { ptr, i32 }
          catch ptr null
  %39 = extractvalue { ptr, i32 } %38, 0
  call void @__clang_call_terminate(ptr %39) #21
  unreachable

_ZN2cv4util7variantIJNS0_9monostateESt8functionIFvRNS_6detail9VectorRefEEES3_IFvRNS4_9OpaqueRefEEEEED2Ev.exit5: ; preds = %.body
  br i1 %.0.lpad-body, label %40, label %41

40:                                               ; preds = %_ZN2cv4util7variantIJNS0_9monostateESt8functionIFvRNS_6detail9VectorRefEEES3_IFvRNS4_9OpaqueRefEEEEED2Ev.exit5
  call void @_ZdlPv(ptr noundef nonnull %5) #19
  br label %41

41:                                               ; preds = %_ZN2cv4util7variantIJNS0_9monostateESt8functionIFvRNS_6detail9VectorRefEEES3_IFvRNS4_9OpaqueRefEEEEED2Ev.exit5, %40
  resume { ptr, i32 } %eh.lpad-body
}